target datalayout = "e-m:e-p270:32:32-p271:32:32-p272:64:64-i64:64-i128:128-f80:128-n8:16:32:64-S128"
target triple = "x86_64-pc-linux-gnu"

%struct.AVRational = type { i32, i32 }
%struct.AVFrame = type { [8 x ptr], [8 x i32], ptr, i32, i32, i32, i32, i32, %struct.AVRational, i64, i64, %struct.AVRational, i32, ptr, i32, i32, [8 x ptr], ptr, i32, ptr, i32, i32, i32, i32, i32, i32, i32, i64, ptr, i32, ptr, ptr, i64, i64, i64, i64, ptr, %struct.AVChannelLayout, i64 }
%struct.AVChannelLayout = type { i32, i32, %union.anon, ptr }
%union.anon = type { i64 }

@.str = private unnamed_addr constant [30 x i8] c"Assertion %s failed at %s:%d\0A\00", align 1
@.str.2 = private unnamed_addr constant [21 x i8] c"fftools/sync_queue.c\00", align 1
@.str.22 = private unnamed_addr constant [8 x i8] c"bps > 0\00", align 1
@.str.23 = private unnamed_addr constant [27 x i8] c"nb_samples < f->nb_samples\00", align 1

; Function Attrs: nounwind uwtable
define internal void @offset_audio(ptr noundef %0, i32 noundef %1) #0 {
  %3 = alloca ptr, align 8
  %4 = alloca i32, align 4
  %5 = alloca i32, align 4
  %6 = alloca i32, align 4
  %7 = alloca i32, align 4
  %8 = alloca i32, align 4
  %9 = alloca i32, align 4
  %10 = alloca %struct.AVRational, align 4
  %11 = alloca %struct.AVRational, align 4
  store ptr %0, ptr %3, align 8, !tbaa !77
  store i32 %1, ptr %4, align 4, !tbaa !9
  call void @llvm.lifetime.start.p0(i64 4, ptr %5) #8
  %12 = load ptr, ptr %3, align 8, !tbaa !77
  %13 = getelementptr inbounds nuw %struct.AVFrame, ptr %12, i32 0, i32 6
  %14 = load i32, ptr %13, align 4, !tbaa !79
  %15 = call i32 @av_sample_fmt_is_planar(i32 noundef %14)
  store i32 %15, ptr %5, align 4, !tbaa !9
  call void @llvm.lifetime.start.p0(i64 4, ptr %6) #8
  %16 = load i32, ptr %5, align 4, !tbaa !9
  %17 = icmp ne i32 %16, 0
  br i1 %17, label %18, label %23

18:                                               ; preds = %2
  %19 = load ptr, ptr %3, align 8, !tbaa !77
  %20 = getelementptr inbounds nuw %struct.AVFrame, ptr %19, i32 0, i32 37
  %21 = getelementptr inbounds nuw %struct.AVChannelLayout, ptr %20, i32 0, i32 1
  %22 = load i32, ptr %21, align 4, !tbaa !81
  br label %24

23:                                               ; preds = %2
  br label %24

24:                                               ; preds = %23, %18
  %25 = phi i32 [ %22, %18 ], [ 1, %23 ]
  store i32 %25, ptr %6, align 4, !tbaa !9
  call void @llvm.lifetime.start.p0(i64 4, ptr %7) #8
  %26 = load ptr, ptr %3, align 8, !tbaa !77
  %27 = getelementptr inbounds nuw %struct.AVFrame, ptr %26, i32 0, i32 6
  %28 = load i32, ptr %27, align 4, !tbaa !79
  %29 = call i32 @av_get_bytes_per_sample(i32 noundef %28)
  store i32 %29, ptr %7, align 4, !tbaa !9
  call void @llvm.lifetime.start.p0(i64 4, ptr %8) #8
  %30 = load i32, ptr %4, align 4, !tbaa !9
  %31 = load i32, ptr %7, align 4, !tbaa !9
  %32 = mul nsw i32 %30, %31
  %33 = load i32, ptr %5, align 4, !tbaa !9
  %34 = icmp ne i32 %33, 0
  br i1 %34, label %35, label %36

35:                                               ; preds = %24
  br label %41

36:                                               ; preds = %24
  %37 = load ptr, ptr %3, align 8, !tbaa !77
  %38 = getelementptr inbounds nuw %struct.AVFrame, ptr %37, i32 0, i32 37
  %39 = getelementptr inbounds nuw %struct.AVChannelLayout, ptr %38, i32 0, i32 1
  %40 = load i32, ptr %39, align 4, !tbaa !81
  br label %41

41:                                               ; preds = %36, %35
  %42 = phi i32 [ 1, %35 ], [ %40, %36 ]
  %43 = mul nsw i32 %32, %42
  store i32 %43, ptr %8, align 4, !tbaa !9
  br label %44

44:                                               ; preds = %41
  %45 = load i32, ptr %7, align 4, !tbaa !9
  %46 = icmp sgt i32 %45, 0
  br i1 %46, label %48, label %47

47:                                               ; preds = %44
  call void (ptr, i32, ptr, ...) @av_log(ptr noundef null, i32 noundef 0, ptr noundef @.str, ptr noundef @.str.22, ptr noundef @.str.2, i32 noundef 396)
  call void @abort() #9
  unreachable

48:                                               ; preds = %44
  br label %49

49:                                               ; preds = %48
  br label %50

50:                                               ; preds = %49
  br label %51

51:                                               ; preds = %50
  %52 = load i32, ptr %4, align 4, !tbaa !9
  %53 = load ptr, ptr %3, align 8, !tbaa !77
  %54 = getelementptr inbounds nuw %struct.AVFrame, ptr %53, i32 0, i32 5
  %55 = load i32, ptr %54, align 8, !tbaa !53
  %56 = icmp slt i32 %52, %55
  br i1 %56, label %58, label %57

57:                                               ; preds = %51
  call void (ptr, i32, ptr, ...) @av_log(ptr noundef null, i32 noundef 0, ptr noundef @.str, ptr noundef @.str.23, ptr noundef @.str.2, i32 noundef 397)
  call void @abort() #9
  unreachable

58:                                               ; preds = %51
  br label %59

59:                                               ; preds = %58
  br label %60

60:                                               ; preds = %59
  call void @llvm.lifetime.start.p0(i64 4, ptr %9) #8
  store i32 0, ptr %9, align 4, !tbaa !9
  br label %61

61:                                               ; preds = %94, %60
  %62 = load i32, ptr %9, align 4, !tbaa !9
  %63 = load i32, ptr %6, align 4, !tbaa !9
  %64 = icmp slt i32 %62, %63
  br i1 %64, label %66, label %65

65:                                               ; preds = %61
  call void @llvm.lifetime.end.p0(i64 4, ptr %9) #8
  br label %97

66:                                               ; preds = %61
  %67 = load i32, ptr %8, align 4, !tbaa !9
  %68 = load ptr, ptr %3, align 8, !tbaa !77
  %69 = getelementptr inbounds nuw %struct.AVFrame, ptr %68, i32 0, i32 2
  %70 = load ptr, ptr %69, align 8, !tbaa !80
  %71 = load i32, ptr %9, align 4, !tbaa !9
  %72 = sext i32 %71 to i64
  %73 = getelementptr inbounds ptr, ptr %70, i64 %72
  %74 = load ptr, ptr %73, align 8, !tbaa !60
  %75 = sext i32 %67 to i64
  %76 = getelementptr inbounds i8, ptr %74, i64 %75
  store ptr %76, ptr %73, align 8, !tbaa !60
  %77 = load i32, ptr %9, align 4, !tbaa !9
  %78 = sext i32 %77 to i64
  %79 = icmp ult i64 %78, 8
  br i1 %79, label %80, label %93

80:                                               ; preds = %66
  %81 = load ptr, ptr %3, align 8, !tbaa !77
  %82 = getelementptr inbounds nuw %struct.AVFrame, ptr %81, i32 0, i32 2
  %83 = load ptr, ptr %82, align 8, !tbaa !80
  %84 = load i32, ptr %9, align 4, !tbaa !9
  %85 = sext i32 %84 to i64
  %86 = getelementptr inbounds ptr, ptr %83, i64 %85
  %87 = load ptr, ptr %86, align 8, !tbaa !60
  %88 = load ptr, ptr %3, align 8, !tbaa !77
  %89 = getelementptr inbounds nuw %struct.AVFrame, ptr %88, i32 0, i32 0
  %90 = load i32, ptr %9, align 4, !tbaa !9
  %91 = sext i32 %90 to i64
  %92 = getelementptr inbounds [8 x ptr], ptr %89, i64 0, i64 %91
  store ptr %87, ptr %92, align 8, !tbaa !60
  br label %93

93:                                               ; preds = %80, %66
  br label %94

94:                                               ; preds = %93
  %95 = load i32, ptr %9, align 4, !tbaa !9
  %96 = add nsw i32 %95, 1
  store i32 %96, ptr %9, align 4, !tbaa !9
  br label %61, !llvm.loop !83

97:                                               ; preds = %65
  %98 = load i32, ptr %8, align 4, !tbaa !9
  %99 = load ptr, ptr %3, align 8, !tbaa !77
  %100 = getelementptr inbounds nuw %struct.AVFrame, ptr %99, i32 0, i32 1
  %101 = getelementptr inbounds [8 x i32], ptr %100, i64 0, i64 0
  %102 = load i32, ptr %101, align 8, !tbaa !9
  %103 = sub nsw i32 %102, %98
  store i32 %103, ptr %101, align 8, !tbaa !9
  %104 = load i32, ptr %4, align 4, !tbaa !9
  %105 = load ptr, ptr %3, align 8, !tbaa !77
  %106 = getelementptr inbounds nuw %struct.AVFrame, ptr %105, i32 0, i32 5
  %107 = load i32, ptr %106, align 8, !tbaa !53
  %108 = sub nsw i32 %107, %104
  store i32 %108, ptr %106, align 8, !tbaa !53
  %109 = load ptr, ptr %3, align 8, !tbaa !77
  %110 = getelementptr inbounds nuw %struct.AVFrame, ptr %109, i32 0, i32 5
  %111 = load i32, ptr %110, align 8, !tbaa !53
  %112 = sext i32 %111 to i64
  %113 = getelementptr inbounds nuw %struct.AVRational, ptr %10, i32 0, i32 0
  store i32 1, ptr %113, align 4, !tbaa !32
  %114 = getelementptr inbounds nuw %struct.AVRational, ptr %10, i32 0, i32 1
  %115 = load ptr, ptr %3, align 8, !tbaa !77
  %116 = getelementptr inbounds nuw %struct.AVFrame, ptr %115, i32 0, i32 15
  %117 = load i32, ptr %116, align 4, !tbaa !23
  store i32 %117, ptr %114, align 4, !tbaa !33
  %118 = load ptr, ptr %3, align 8, !tbaa !77
  %119 = getelementptr inbounds nuw %struct.AVFrame, ptr %118, i32 0, i32 11
  %120 = load i64, ptr %10, align 4
  %121 = load i64, ptr %119, align 8
  %122 = call i64 @av_rescale_q(i64 noundef %112, i64 %120, i64 %121) #10
  %123 = load ptr, ptr %3, align 8, !tbaa !77
  %124 = getelementptr inbounds nuw %struct.AVFrame, ptr %123, i32 0, i32 38
  store i64 %122, ptr %124, align 8, !tbaa !34
  %125 = load i32, ptr %4, align 4, !tbaa !9
  %126 = sext i32 %125 to i64
  %127 = getelementptr inbounds nuw %struct.AVRational, ptr %11, i32 0, i32 0
  store i32 1, ptr %127, align 4, !tbaa !32
  %128 = getelementptr inbounds nuw %struct.AVRational, ptr %11, i32 0, i32 1
  %129 = load ptr, ptr %3, align 8, !tbaa !77
  %130 = getelementptr inbounds nuw %struct.AVFrame, ptr %129, i32 0, i32 15
  %131 = load i32, ptr %130, align 4, !tbaa !23
  store i32 %131, ptr %128, align 4, !tbaa !33
  %132 = load ptr, ptr %3, align 8, !tbaa !77
  %133 = getelementptr inbounds nuw %struct.AVFrame, ptr %132, i32 0, i32 11
  %134 = load i64, ptr %11, align 4
  %135 = load i64, ptr %133, align 8
  %136 = call i64 @av_rescale_q(i64 noundef %126, i64 %134, i64 %135) #10
  %137 = load ptr, ptr %3, align 8, !tbaa !77
  %138 = getelementptr inbounds nuw %struct.AVFrame, ptr %137, i32 0, i32 9
  %139 = load i64, ptr %138, align 8, !tbaa !54
  %140 = add nsw i64 %139, %136
  store i64 %140, ptr %138, align 8, !tbaa !54
  call void @llvm.lifetime.end.p0(i64 4, ptr %8) #8
  call void @llvm.lifetime.end.p0(i64 4, ptr %7) #8
  call void @llvm.lifetime.end.p0(i64 4, ptr %6) #8
  call void @llvm.lifetime.end.p0(i64 4, ptr %5) #8
  ret void
}