; Function Attrs: nounwind uwtable
define internal fastcc void @offset_audio(ptr noundef captures(none) %0, i32 noundef %1) unnamed_addr #0 {
  %3 = getelementptr inbounds nuw i8, ptr %0, i64 116
  %4 = load i32, ptr %3, align 4, !tbaa !67
  %5 = tail call i32 @av_sample_fmt_is_planar(i32 noundef %4) #7
  %.not = icmp eq i32 %5, 0
  br i1 %.not, label %11, label %6

6:                                                ; preds = %2
  %7 = getelementptr inbounds nuw i8, ptr %0, i64 388
  %8 = load i32, ptr %7, align 4, !tbaa !69
  %9 = load i32, ptr %3, align 4, !tbaa !67
  %10 = tail call i32 @av_get_bytes_per_sample(i32 noundef %9) #7
  br label %16

11:                                               ; preds = %2
  %12 = load i32, ptr %3, align 4, !tbaa !67
  %13 = tail call i32 @av_get_bytes_per_sample(i32 noundef %12) #7
  %14 = getelementptr inbounds nuw i8, ptr %0, i64 388
  %15 = load i32, ptr %14, align 4, !tbaa !69
  br label %16

16:                                               ; preds = %6, %11
  %17 = phi i32 [ %13, %11 ], [ %10, %6 ]
  %18 = phi i32 [ 1, %11 ], [ %8, %6 ]
  %19 = phi i32 [ %15, %11 ], [ 1, %6 ]
  %20 = mul nsw i32 %17, %1
  %21 = mul nsw i32 %20, %19
  %22 = icmp sgt i32 %17, 0
  br i1 %22, label %24, label %23

23:                                               ; preds = %16
  tail call void (ptr, i32, ptr, ...) @av_log(ptr noundef null, i32 noundef 0, ptr noundef nonnull @.str, ptr noundef nonnull @.str.22, ptr noundef nonnull @.str.2, i32 noundef 396) #7
  tail call void @abort() #8
  unreachable

24:                                               ; preds = %16
  %25 = getelementptr inbounds nuw i8, ptr %0, i64 112
  %26 = load i32, ptr %25, align 8, !tbaa !24
  %27 = icmp slt i32 %1, %26
  br i1 %27, label %.preheader, label %32

.preheader:                                       ; preds = %24
  %28 = icmp sgt i32 %18, 0
  br i1 %28, label %.lr.ph, label %._crit_edge

.lr.ph:                                           ; preds = %.preheader
  %29 = getelementptr inbounds nuw i8, ptr %0, i64 96
  %30 = load ptr, ptr %29, align 8, !tbaa !68
  %31 = sext i32 %21 to i64
  %wide.trip.count = zext nneg i32 %18 to i64
  br label %49

32:                                               ; preds = %24
  tail call void (ptr, i32, ptr, ...) @av_log(ptr noundef null, i32 noundef 0, ptr noundef nonnull @.str, ptr noundef nonnull @.str.23, ptr noundef nonnull @.str.2, i32 noundef 397) #7
  tail call void @abort() #8
  unreachable

._crit_edge:                                      ; preds = %56, %.preheader
  %33 = getelementptr inbounds nuw i8, ptr %0, i64 64
  %34 = load i32, ptr %33, align 8, !tbaa !19
  %35 = sub nsw i32 %34, %21
  store i32 %35, ptr %33, align 8, !tbaa !19
  %36 = sub nsw i32 %26, %1
  store i32 %36, ptr %25, align 8, !tbaa !24
  %37 = sext i32 %36 to i64
  %38 = getelementptr inbounds nuw i8, ptr %0, i64 180
  %39 = load i32, ptr %38, align 4, !tbaa !33
  %40 = getelementptr inbounds nuw i8, ptr %0, i64 152
  %.sroa.22.0.insert.ext = zext i32 %39 to i64
  %.sroa.22.0.insert.shift = shl nuw i64 %.sroa.22.0.insert.ext, 32
  %.sroa.01.0.insert.insert = or disjoint i64 %.sroa.22.0.insert.shift, 1
  %41 = load i64, ptr %40, align 8
  %42 = tail call i64 @av_rescale_q(i64 noundef %37, i64 %.sroa.01.0.insert.insert, i64 %41) #9
  %43 = getelementptr inbounds nuw i8, ptr %0, i64 408
  store i64 %42, ptr %43, align 8, !tbaa !34
  %44 = sext i32 %1 to i64
  %45 = tail call i64 @av_rescale_q(i64 noundef %44, i64 %.sroa.01.0.insert.insert, i64 %41) #9
  %46 = getelementptr inbounds nuw i8, ptr %0, i64 136
  %47 = load i64, ptr %46, align 8, !tbaa !64
  %48 = add nsw i64 %47, %45
  store i64 %48, ptr %46, align 8, !tbaa !64
  ret void

49:                                               ; preds = %.lr.ph, %56
  %indvars.iv = phi i64 [ 0, %.lr.ph ], [ %indvars.iv.next, %56 ]
  %50 = getelementptr inbounds nuw ptr, ptr %30, i64 %indvars.iv
  %51 = load ptr, ptr %50, align 8, !tbaa !66
  %52 = getelementptr inbounds i8, ptr %51, i64 %31
  store ptr %52, ptr %50, align 8, !tbaa !66
  %53 = icmp samesign ult i64 %indvars.iv, 8
  br i1 %53, label %54, label %56

54:                                               ; preds = %49
  %55 = getelementptr inbounds nuw [8 x ptr], ptr %0, i64 0, i64 %indvars.iv
  store ptr %52, ptr %55, align 8, !tbaa !66
  br label %56

56:                                               ; preds = %49, %54
  %indvars.iv.next = add nuw nsw i64 %indvars.iv, 1
  %exitcond.not = icmp eq i64 %indvars.iv.next, %wide.trip.count
  br i1 %exitcond.not, label %._crit_edge, label %49, !llvm.loop !71
}